target datalayout = "e-m:e-p270:32:32-p271:32:32-p272:64:64-i64:64-i128:128-f80:128-n8:16:32:64-S128"
target triple = "x86_64-pc-linux-gnu"

%"class.std::__cxx11::basic_string" = type { %"struct.std::__cxx11::basic_string<char>::_Alloc_hider", i64, %union.anon }
%"struct.std::__cxx11::basic_string<char>::_Alloc_hider" = type { ptr }
%union.anon = type { i64, [8 x i8] }
%"class.Json::Value" = type { %"union.Json::Value::ValueHolder", %struct.anon, %"class.Json::Value::Comments", i64, i64 }
%"union.Json::Value::ValueHolder" = type { i64 }
%struct.anon = type { i16, [2 x i8] }
%"class.Json::Value::Comments" = type { %"class.std::unique_ptr.167" }
%"class.std::unique_ptr.167" = type { %"struct.std::__uniq_ptr_data.168" }
%"struct.std::__uniq_ptr_data.168" = type { %"class.std::__uniq_ptr_impl.169" }
%"class.std::__uniq_ptr_impl.169" = type { %"class.std::tuple.170" }
%"class.std::tuple.170" = type { %"struct.std::_Tuple_impl.171" }
%"struct.std::_Tuple_impl.171" = type { %"struct.std::_Head_base.174" }
%"struct.std::_Head_base.174" = type { ptr }
%"struct.cmFileAPI::ClientRequests" = type { %"class.std::vector.180", %"class.std::__cxx11::basic_string" }
%"class.std::vector.180" = type { %"struct.std::_Vector_base.181" }
%"struct.std::_Vector_base.181" = type { %"struct.std::_Vector_base<cmFileAPI::ClientRequest, std::allocator<cmFileAPI::ClientRequest>>::_Vector_impl" }
%"struct.std::_Vector_base<cmFileAPI::ClientRequest, std::allocator<cmFileAPI::ClientRequest>>::_Vector_impl" = type { %"struct.std::_Vector_base<cmFileAPI::ClientRequest, std::allocator<cmFileAPI::ClientRequest>>::_Vector_impl_data" }
%"struct.std::_Vector_base<cmFileAPI::ClientRequest, std::allocator<cmFileAPI::ClientRequest>>::_Vector_impl_data" = type { ptr, ptr, ptr }
%"struct.cmFileAPI::Object" = type { i32, i64 }
%"struct.cmFileAPI::ClientRequest" = type { %"struct.cmFileAPI::Object", %"class.std::__cxx11::basic_string" }
%"class.__gnu_cxx::__normal_iterator.369" = type { ptr }

@.str.42 = private unnamed_addr constant [6 x i8] c"error\00", align 1

; Function Attrs: mustprogress nounwind uwtable
define linkonce_odr dso_local noundef nonnull align 8 dereferenceable(8) ptr @_ZNK9__gnu_cxx17__normal_iteratorIPKN9cmFileAPI13ClientRequestESt6vectorIS2_SaIS2_EEE4baseEv(ptr noundef nonnull align 8 dereferenceable(8) %0) #6 comdat align 2 {
  %2 = alloca ptr, align 8
  store ptr %0, ptr %2, align 8, !tbaa !274
  %3 = load ptr, ptr %2, align 8
  %4 = getelementptr inbounds nuw %"class.__gnu_cxx::__normal_iterator.369", ptr %3, i32 0, i32 0
  ret ptr %4
}

; Function Attrs: mustprogress nounwind uwtable
define linkonce_odr dso_local void @_ZN9__gnu_cxx17__normal_iteratorIPKN9cmFileAPI13ClientRequestESt6vectorIS2_SaIS2_EEEC2ERKS4_(ptr noundef nonnull align 8 dereferenceable(8) %0, ptr noundef nonnull align 8 dereferenceable(8) %1) unnamed_addr #6 comdat align 2 {
  %3 = alloca ptr, align 8
  %4 = alloca ptr, align 8
  store ptr %0, ptr %3, align 8, !tbaa !274
  store ptr %1, ptr %4, align 8, !tbaa !732
  %5 = load ptr, ptr %3, align 8
  %6 = getelementptr inbounds nuw %"class.__gnu_cxx::__normal_iterator.369", ptr %5, i32 0, i32 0
  %7 = load ptr, ptr %4, align 8, !tbaa !732
  %8 = load ptr, ptr %7, align 8, !tbaa !256
  store ptr %8, ptr %6, align 8, !tbaa !276
  ret void
}

; Function Attrs: mustprogress nounwind uwtable
define available_externally noundef i64 @_ZNKSt7__cxx1112basic_stringIcSt11char_traitsIcESaIcEE4sizeEv(ptr noundef nonnull align 8 dereferenceable(32) %0) #6 align 2 {
  %2 = alloca ptr, align 8
  store ptr %0, ptr %2, align 8, !tbaa !18
  %3 = load ptr, ptr %2, align 8
  %4 = getelementptr inbounds nuw %"class.std::__cxx11::basic_string", ptr %3, i32 0, i32 1
  %5 = load i64, ptr %4, align 8, !tbaa !210
  ret i64 %5
}

; Function Attrs: mustprogress nounwind uwtable
define linkonce_odr dso_local noundef nonnull align 8 dereferenceable(8) ptr @_ZN9__gnu_cxx17__normal_iteratorIPKN9cmFileAPI13ClientRequestESt6vectorIS2_SaIS2_EEEppEv(ptr noundef nonnull align 8 dereferenceable(8) %0) #6 comdat align 2 {
  %2 = alloca ptr, align 8
  store ptr %0, ptr %2, align 8, !tbaa !274
  %3 = load ptr, ptr %2, align 8
  %4 = getelementptr inbounds nuw %"class.__gnu_cxx::__normal_iterator.369", ptr %3, i32 0, i32 0
  %5 = load ptr, ptr %4, align 8, !tbaa !276
  %6 = getelementptr inbounds nuw %"struct.cmFileAPI::ClientRequest", ptr %5, i32 1
  store ptr %6, ptr %4, align 8, !tbaa !276
  ret ptr %3
}

; Function Attrs: mustprogress nounwind uwtable
define linkonce_odr dso_local noundef nonnull align 8 dereferenceable(48) ptr @_ZNK9__gnu_cxx17__normal_iteratorIPKN9cmFileAPI13ClientRequestESt6vectorIS2_SaIS2_EEEdeEv(ptr noundef nonnull align 8 dereferenceable(8) %0) #6 comdat align 2 {
  %2 = alloca ptr, align 8
  store ptr %0, ptr %2, align 8, !tbaa !274
  %3 = load ptr, ptr %2, align 8
  %4 = getelementptr inbounds nuw %"class.__gnu_cxx::__normal_iterator.369", ptr %3, i32 0, i32 0
  %5 = load ptr, ptr %4, align 8, !tbaa !276
  ret ptr %5
}

; Function Attrs: inlinehint mustprogress nounwind uwtable
define linkonce_odr dso_local noundef zeroext i1 @_ZN9__gnu_cxxneIPKN9cmFileAPI13ClientRequestESt6vectorIS2_SaIS2_EEEEbRKNS_17__normal_iteratorIT_T0_EESD_(ptr noundef nonnull align 8 dereferenceable(8) %0, ptr noundef nonnull align 8 dereferenceable(8) %1) #7 comdat {
  %3 = alloca ptr, align 8
  %4 = alloca ptr, align 8
  store ptr %0, ptr %3, align 8, !tbaa !274
  store ptr %1, ptr %4, align 8, !tbaa !274
  %5 = load ptr, ptr %3, align 8, !tbaa !274
  %6 = call noundef nonnull align 8 dereferenceable(8) ptr @_ZNK9__gnu_cxx17__normal_iteratorIPKN9cmFileAPI13ClientRequestESt6vectorIS2_SaIS2_EEE4baseEv(ptr noundef nonnull align 8 dereferenceable(8) %5) #3
  %7 = load ptr, ptr %6, align 8, !tbaa !256
  %8 = load ptr, ptr %4, align 8, !tbaa !274
  %9 = call noundef nonnull align 8 dereferenceable(8) ptr @_ZNK9__gnu_cxx17__normal_iteratorIPKN9cmFileAPI13ClientRequestESt6vectorIS2_SaIS2_EEE4baseEv(ptr noundef nonnull align 8 dereferenceable(8) %8) #3
  %10 = load ptr, ptr %9, align 8, !tbaa !256
  %11 = icmp ne ptr %7, %10
  ret i1 %11
}

; Function Attrs: mustprogress nounwind uwtable
define linkonce_odr dso_local ptr @_ZNKSt6vectorIN9cmFileAPI13ClientRequestESaIS1_EE3endEv(ptr noundef nonnull align 8 dereferenceable(24) %0) #6 comdat align 2 {
  %2 = alloca %"class.__gnu_cxx::__normal_iterator.369", align 8
  %3 = alloca ptr, align 8
  store ptr %0, ptr %3, align 8, !tbaa !254
  %4 = load ptr, ptr %3, align 8
  %5 = getelementptr inbounds nuw %"struct.std::_Vector_base.181", ptr %4, i32 0, i32 0
  %6 = getelementptr inbounds nuw %"struct.std::_Vector_base<cmFileAPI::ClientRequest, std::allocator<cmFileAPI::ClientRequest>>::_Vector_impl_data", ptr %5, i32 0, i32 1
  call void @_ZN9__gnu_cxx17__normal_iteratorIPKN9cmFileAPI13ClientRequestESt6vectorIS2_SaIS2_EEEC2ERKS4_(ptr noundef nonnull align 8 dereferenceable(8) %2, ptr noundef nonnull align 8 dereferenceable(8) %6) #3
  %7 = getelementptr inbounds nuw %"class.__gnu_cxx::__normal_iterator.369", ptr %2, i32 0, i32 0
  %8 = load ptr, ptr %7, align 8
  ret ptr %8
}

; Function Attrs: mustprogress nounwind uwtable
define linkonce_odr dso_local ptr @_ZNKSt6vectorIN9cmFileAPI13ClientRequestESaIS1_EE5beginEv(ptr noundef nonnull align 8 dereferenceable(24) %0) #6 comdat align 2 {
  %2 = alloca %"class.__gnu_cxx::__normal_iterator.369", align 8
  %3 = alloca ptr, align 8
  store ptr %0, ptr %3, align 8, !tbaa !254
  %4 = load ptr, ptr %3, align 8
  %5 = getelementptr inbounds nuw %"struct.std::_Vector_base.181", ptr %4, i32 0, i32 0
  %6 = getelementptr inbounds nuw %"struct.std::_Vector_base<cmFileAPI::ClientRequest, std::allocator<cmFileAPI::ClientRequest>>::_Vector_impl_data", ptr %5, i32 0, i32 0
  call void @_ZN9__gnu_cxx17__normal_iteratorIPKN9cmFileAPI13ClientRequestESt6vectorIS2_SaIS2_EEEC2ERKS4_(ptr noundef nonnull align 8 dereferenceable(8) %2, ptr noundef nonnull align 8 dereferenceable(8) %6) #3
  %7 = getelementptr inbounds nuw %"class.__gnu_cxx::__normal_iterator.369", ptr %2, i32 0, i32 0
  %8 = load ptr, ptr %7, align 8
  ret ptr %8
}

; Function Attrs: mustprogress uwtable
define dso_local void @_ZN9cmFileAPI15BuildReplyErrorERKNSt7__cxx1112basic_stringIcSt11char_traitsIcESaIcEEE(ptr dead_on_unwind noalias writable sret(%"class.Json::Value") align 8 %0, ptr noundef nonnull align 8 dereferenceable(32) %1) #5 align 2 personality ptr @__gxx_personality_v0 {
  %3 = alloca ptr, align 8
  %4 = alloca ptr, align 8
  %5 = alloca i1, align 1
  %6 = alloca %"class.Json::Value", align 8
  %7 = alloca ptr, align 8
  %8 = alloca i32, align 4
  store ptr %0, ptr %3, align 8
  store ptr %1, ptr %4, align 8, !tbaa !18
  store i1 false, ptr %5, align 1
  call void @_ZN4Json5ValueC1ENS_9ValueTypeE(ptr noundef nonnull align 8 dereferenceable(40) %0, i32 noundef 7)
  call void @llvm.lifetime.start.p0(i64 40, ptr %6) #3
  %9 = load ptr, ptr %4, align 8, !tbaa !18
  invoke void @_ZN4Json5ValueC1ERKNSt7__cxx1112basic_stringIcSt11char_traitsIcESaIcEEE(ptr noundef nonnull align 8 dereferenceable(40) %6, ptr noundef nonnull align 8 dereferenceable(32) %9)
          to label %10 unwind label %15

10:                                               ; preds = %2
  %11 = invoke noundef nonnull align 8 dereferenceable(40) ptr @_ZN4Json5ValueixEPKc(ptr noundef nonnull align 8 dereferenceable(40) %0, ptr noundef @.str.42)
          to label %12 unwind label %19

12:                                               ; preds = %10
  %13 = call noundef nonnull align 8 dereferenceable(40) ptr @_ZN4Json5ValueaSEOS0_(ptr noundef nonnull align 8 dereferenceable(40) %11, ptr noundef nonnull align 8 dereferenceable(40) %6) #3
  call void @_ZN4Json5ValueD1Ev(ptr noundef nonnull align 8 dereferenceable(40) %6) #3
  call void @llvm.lifetime.end.p0(i64 40, ptr %6) #3
  store i1 true, ptr %5, align 1
  %14 = load i1, ptr %5, align 1
  br i1 %14, label %25, label %24

15:                                               ; preds = %2
  %16 = landingpad { ptr, i32 }
          cleanup
  %17 = extractvalue { ptr, i32 } %16, 0
  store ptr %17, ptr %7, align 8
  %18 = extractvalue { ptr, i32 } %16, 1
  store i32 %18, ptr %8, align 4
  br label %23

19:                                               ; preds = %10
  %20 = landingpad { ptr, i32 }
          cleanup
  %21 = extractvalue { ptr, i32 } %20, 0
  store ptr %21, ptr %7, align 8
  %22 = extractvalue { ptr, i32 } %20, 1
  store i32 %22, ptr %8, align 4
  call void @_ZN4Json5ValueD1Ev(ptr noundef nonnull align 8 dereferenceable(40) %6) #3
  br label %23

23:                                               ; preds = %19, %15
  call void @llvm.lifetime.end.p0(i64 40, ptr %6) #3
  call void @_ZN4Json5ValueD1Ev(ptr noundef nonnull align 8 dereferenceable(40) %0) #3
  br label %26

24:                                               ; preds = %12
  call void @_ZN4Json5ValueD1Ev(ptr noundef nonnull align 8 dereferenceable(40) %0) #3
  br label %25

25:                                               ; preds = %24, %12
  ret void

26:                                               ; preds = %23
  %27 = load ptr, ptr %7, align 8
  %28 = load i32, ptr %8, align 4
  %29 = insertvalue { ptr, i32 } poison, ptr %27, 0
  %30 = insertvalue { ptr, i32 } %29, i32 %28, 1
  resume { ptr, i32 } %30
}

; Function Attrs: mustprogress nounwind uwtable
define available_externally noundef zeroext i1 @_ZNKSt7__cxx1112basic_stringIcSt11char_traitsIcESaIcEE5emptyEv(ptr noundef nonnull align 8 dereferenceable(32) %0) #6 align 2 {
  %2 = alloca ptr, align 8
  store ptr %0, ptr %2, align 8, !tbaa !18
  %3 = load ptr, ptr %2, align 8
  %4 = call noundef i64 @_ZNKSt7__cxx1112basic_stringIcSt11char_traitsIcESaIcEE4sizeEv(ptr noundef nonnull align 8 dereferenceable(32) %3) #3
  %5 = icmp eq i64 %4, 0
  ret i1 %5
}

; Function Attrs: mustprogress uwtable
define dso_local void @_ZN9cmFileAPI25BuildClientReplyResponsesERKNS_14ClientRequestsE(ptr dead_on_unwind noalias writable sret(%"class.Json::Value") align 8 %0, ptr noundef nonnull align 8 dereferenceable(296) %1, ptr noundef nonnull align 8 dereferenceable(56) %2) #5 align 2 personality ptr @__gxx_personality_v0 {
  %4 = alloca ptr, align 8
  %5 = alloca ptr, align 8
  %6 = alloca ptr, align 8
  %7 = alloca i1, align 1
  %8 = alloca %"class.Json::Value", align 8
  %9 = alloca ptr, align 8
  %10 = alloca i32, align 4
  %11 = alloca i32, align 4
  %12 = alloca %"class.Json::Value", align 8
  %13 = alloca ptr, align 8
  %14 = alloca %"class.__gnu_cxx::__normal_iterator.369", align 8
  %15 = alloca %"class.__gnu_cxx::__normal_iterator.369", align 8
  %16 = alloca ptr, align 8
  %17 = alloca %"class.Json::Value", align 8
  store ptr %0, ptr %4, align 8
  store ptr %1, ptr %5, align 8, !tbaa !20
  store ptr %2, ptr %6, align 8, !tbaa !238
  %18 = load ptr, ptr %5, align 8
  store i1 false, ptr %7, align 1
  call void @_ZN4Json5ValueC1ENS_9ValueTypeE(ptr noundef nonnull align 8 dereferenceable(40) %0, i32 noundef 0)
  %19 = load ptr, ptr %6, align 8, !tbaa !238
  %20 = getelementptr inbounds nuw %"struct.cmFileAPI::ClientRequests", ptr %19, i32 0, i32 1
  %21 = call noundef zeroext i1 @_ZNKSt7__cxx1112basic_stringIcSt11char_traitsIcESaIcEE5emptyEv(ptr noundef nonnull align 8 dereferenceable(32) %20) #3
  br i1 %21, label %31, label %22

22:                                               ; preds = %3
  call void @llvm.lifetime.start.p0(i64 40, ptr %8) #3
  %23 = load ptr, ptr %6, align 8, !tbaa !238
  %24 = getelementptr inbounds nuw %"struct.cmFileAPI::ClientRequests", ptr %23, i32 0, i32 1
  invoke void @_ZN9cmFileAPI15BuildReplyErrorERKNSt7__cxx1112basic_stringIcSt11char_traitsIcESaIcEEE(ptr dead_on_unwind writable sret(%"class.Json::Value") align 8 %8, ptr noundef nonnull align 8 dereferenceable(32) %24)
          to label %25 unwind label %27

25:                                               ; preds = %22
  %26 = call noundef nonnull align 8 dereferenceable(40) ptr @_ZN4Json5ValueaSEOS0_(ptr noundef nonnull align 8 dereferenceable(40) %0, ptr noundef nonnull align 8 dereferenceable(40) %8) #3
  call void @_ZN4Json5ValueD1Ev(ptr noundef nonnull align 8 dereferenceable(40) %8) #3
  call void @llvm.lifetime.end.p0(i64 40, ptr %8) #3
  store i1 true, ptr %7, align 1
  store i32 1, ptr %11, align 4
  br label %66

27:                                               ; preds = %22
  %28 = landingpad { ptr, i32 }
          cleanup
  %29 = extractvalue { ptr, i32 } %28, 0
  store ptr %29, ptr %9, align 8
  %30 = extractvalue { ptr, i32 } %28, 1
  store i32 %30, ptr %10, align 4
  call void @llvm.lifetime.end.p0(i64 40, ptr %8) #3
  br label %70

31:                                               ; preds = %3
  call void @llvm.lifetime.start.p0(i64 40, ptr %12) #3
  invoke void @_ZN4Json5ValueC1ENS_9ValueTypeE(ptr noundef nonnull align 8 dereferenceable(40) %12, i32 noundef 6)
          to label %32 unwind label %44

32:                                               ; preds = %31
  %33 = call noundef nonnull align 8 dereferenceable(40) ptr @_ZN4Json5ValueaSEOS0_(ptr noundef nonnull align 8 dereferenceable(40) %0, ptr noundef nonnull align 8 dereferenceable(40) %12) #3
  call void @_ZN4Json5ValueD1Ev(ptr noundef nonnull align 8 dereferenceable(40) %12) #3
  call void @llvm.lifetime.end.p0(i64 40, ptr %12) #3
  call void @llvm.lifetime.start.p0(i64 8, ptr %13) #3
  %34 = load ptr, ptr %6, align 8, !tbaa !238
  store ptr %34, ptr %13, align 8, !tbaa !238
  call void @llvm.lifetime.start.p0(i64 8, ptr %14) #3
  %35 = load ptr, ptr %13, align 8, !tbaa !238
  %36 = call ptr @_ZNKSt6vectorIN9cmFileAPI13ClientRequestESaIS1_EE5beginEv(ptr noundef nonnull align 8 dereferenceable(24) %35) #3
  %37 = getelementptr inbounds nuw %"class.__gnu_cxx::__normal_iterator.369", ptr %14, i32 0, i32 0
  store ptr %36, ptr %37, align 8
  call void @llvm.lifetime.start.p0(i64 8, ptr %15) #3
  %38 = load ptr, ptr %13, align 8, !tbaa !238
  %39 = call ptr @_ZNKSt6vectorIN9cmFileAPI13ClientRequestESaIS1_EE3endEv(ptr noundef nonnull align 8 dereferenceable(24) %38) #3
  %40 = getelementptr inbounds nuw %"class.__gnu_cxx::__normal_iterator.369", ptr %15, i32 0, i32 0
  store ptr %39, ptr %40, align 8
  br label %41

41:                                               ; preds = %54, %32
  %42 = call noundef zeroext i1 @_ZN9__gnu_cxxneIPKN9cmFileAPI13ClientRequestESt6vectorIS2_SaIS2_EEEEbRKNS_17__normal_iteratorIT_T0_EESD_(ptr noundef nonnull align 8 dereferenceable(8) %14, ptr noundef nonnull align 8 dereferenceable(8) %15) #3
  br i1 %42, label %48, label %43

43:                                               ; preds = %41
  store i32 2, ptr %11, align 4
  call void @llvm.lifetime.end.p0(i64 8, ptr %15) #3
  call void @llvm.lifetime.end.p0(i64 8, ptr %14) #3
  call void @llvm.lifetime.end.p0(i64 8, ptr %13) #3
  br label %65

44:                                               ; preds = %31
  %45 = landingpad { ptr, i32 }
          cleanup
  %46 = extractvalue { ptr, i32 } %45, 0
  store ptr %46, ptr %9, align 8
  %47 = extractvalue { ptr, i32 } %45, 1
  store i32 %47, ptr %10, align 4
  call void @llvm.lifetime.end.p0(i64 40, ptr %12) #3
  br label %70

48:                                               ; preds = %41
  call void @llvm.lifetime.start.p0(i64 8, ptr %16) #3
  %49 = call noundef nonnull align 8 dereferenceable(48) ptr @_ZNK9__gnu_cxx17__normal_iteratorIPKN9cmFileAPI13ClientRequestESt6vectorIS2_SaIS2_EEEdeEv(ptr noundef nonnull align 8 dereferenceable(8) %14) #3
  store ptr %49, ptr %16, align 8, !tbaa !256
  call void @llvm.lifetime.start.p0(i64 40, ptr %17) #3
  %50 = load ptr, ptr %16, align 8, !tbaa !256
  invoke void @_ZN9cmFileAPI24BuildClientReplyResponseERKNS_13ClientRequestE(ptr dead_on_unwind writable sret(%"class.Json::Value") align 8 %17, ptr noundef nonnull align 8 dereferenceable(296) %18, ptr noundef nonnull align 8 dereferenceable(48) %50)
          to label %51 unwind label %56

51:                                               ; preds = %48
  %52 = invoke noundef nonnull align 8 dereferenceable(40) ptr @_ZN4Json5Value6appendEOS0_(ptr noundef nonnull align 8 dereferenceable(40) %0, ptr noundef nonnull align 8 dereferenceable(40) %17)
          to label %53 unwind label %60

53:                                               ; preds = %51
  call void @_ZN4Json5ValueD1Ev(ptr noundef nonnull align 8 dereferenceable(40) %17) #3
  call void @llvm.lifetime.end.p0(i64 40, ptr %17) #3
  call void @llvm.lifetime.end.p0(i64 8, ptr %16) #3
  br label %54

54:                                               ; preds = %53
  %55 = call noundef nonnull align 8 dereferenceable(8) ptr @_ZN9__gnu_cxx17__normal_iteratorIPKN9cmFileAPI13ClientRequestESt6vectorIS2_SaIS2_EEEppEv(ptr noundef nonnull align 8 dereferenceable(8) %14) #3
  br label %41

56:                                               ; preds = %48
  %57 = landingpad { ptr, i32 }
          cleanup
  %58 = extractvalue { ptr, i32 } %57, 0
  store ptr %58, ptr %9, align 8
  %59 = extractvalue { ptr, i32 } %57, 1
  store i32 %59, ptr %10, align 4
  br label %64

60:                                               ; preds = %51
  %61 = landingpad { ptr, i32 }
          cleanup
  %62 = extractvalue { ptr, i32 } %61, 0
  store ptr %62, ptr %9, align 8
  %63 = extractvalue { ptr, i32 } %61, 1
  store i32 %63, ptr %10, align 4
  call void @_ZN4Json5ValueD1Ev(ptr noundef nonnull align 8 dereferenceable(40) %17) #3
  br label %64

64:                                               ; preds = %60, %56
  call void @llvm.lifetime.end.p0(i64 40, ptr %17) #3
  call void @llvm.lifetime.end.p0(i64 8, ptr %16) #3
  call void @llvm.lifetime.end.p0(i64 8, ptr %15) #3
  call void @llvm.lifetime.end.p0(i64 8, ptr %14) #3
  call void @llvm.lifetime.end.p0(i64 8, ptr %13) #3
  br label %70

65:                                               ; preds = %43
  store i1 true, ptr %7, align 1
  store i32 1, ptr %11, align 4
  br label %66

66:                                               ; preds = %65, %25
  %67 = load i1, ptr %7, align 1
  br i1 %67, label %69, label %68

68:                                               ; preds = %66
  call void @_ZN4Json5ValueD1Ev(ptr noundef nonnull align 8 dereferenceable(40) %0) #3
  br label %69

69:                                               ; preds = %68, %66
  ret void

70:                                               ; preds = %64, %44, %27
  call void @_ZN4Json5ValueD1Ev(ptr noundef nonnull align 8 dereferenceable(40) %0) #3
  br label %71

71:                                               ; preds = %70
  %72 = load ptr, ptr %9, align 8
  %73 = load i32, ptr %10, align 4
  %74 = insertvalue { ptr, i32 } poison, ptr %72, 0
  %75 = insertvalue { ptr, i32 } %74, i32 %73, 1
  resume { ptr, i32 } %75
}