; Function Attrs: mustprogress uwtable
define dso_local void @_ZN9cmFileAPI25BuildClientReplyResponsesERKNS_14ClientRequestsE(ptr dead_on_unwind noalias nonnull writable sret(%"class.Json::Value") align 8 %0, ptr noundef nonnull align 8 dereferenceable(296) %1, ptr noundef nonnull align 8 dereferenceable(56) %2) local_unnamed_addr #5 align 2 personality ptr @__gxx_personality_v0 {
  %4 = alloca %"class.Json::Value", align 8
  %5 = alloca %"class.Json::Value", align 8
  %6 = alloca %"class.Json::Value", align 8
  %7 = alloca %"class.Json::Value", align 8
  tail call void @_ZN4Json5ValueC1ENS_9ValueTypeE(ptr noundef nonnull align 8 dereferenceable(40) %0, i32 noundef 0)
  %8 = getelementptr inbounds nuw i8, ptr %2, i64 24
  %9 = getelementptr inbounds nuw i8, ptr %2, i64 32
  %10 = load i64, ptr %9, align 8, !tbaa !62
  %11 = icmp eq i64 %10, 0
  br i1 %11, label %25, label %12

12:                                               ; preds = %3
  call void @llvm.lifetime.start.p0(i64 40, ptr nonnull %5) #24
  invoke void @_ZN4Json5ValueC1ENS_9ValueTypeE(ptr noundef nonnull align 8 dereferenceable(40) %5, i32 noundef 7)
          to label %.noexc unwind label %23

.noexc:                                           ; preds = %12
  call void @llvm.lifetime.start.p0(i64 40, ptr nonnull %4) #24, !noalias !393
  invoke void @_ZN4Json5ValueC1ERKNSt7__cxx1112basic_stringIcSt11char_traitsIcESaIcEEE(ptr noundef nonnull align 8 dereferenceable(40) %4, ptr noundef nonnull align 8 dereferenceable(32) %8)
          to label %13 unwind label %15

13:                                               ; preds = %.noexc
  %14 = invoke noundef nonnull align 8 dereferenceable(40) ptr @_ZN4Json5ValueixEPKc(ptr noundef nonnull align 8 dereferenceable(40) %5, ptr noundef nonnull @.str.42)
          to label %20 unwind label %17

15:                                               ; preds = %.noexc
  %16 = landingpad { ptr, i32 }
          cleanup
  br label %19

17:                                               ; preds = %13
  %18 = landingpad { ptr, i32 }
          cleanup
  call void @_ZN4Json5ValueD1Ev(ptr noundef nonnull align 8 dereferenceable(40) %4) #24
  br label %19

19:                                               ; preds = %17, %15
  %.pn.i = phi { ptr, i32 } [ %18, %17 ], [ %16, %15 ]
  call void @llvm.lifetime.end.p0(i64 40, ptr nonnull %4) #24, !noalias !393
  call void @_ZN4Json5ValueD1Ev(ptr noundef nonnull align 8 dereferenceable(40) %5) #24
  br label %.body

20:                                               ; preds = %13
  %21 = call noundef nonnull align 8 dereferenceable(40) ptr @_ZN4Json5ValueaSEOS0_(ptr noundef nonnull align 8 dereferenceable(40) %14, ptr noundef nonnull align 8 dereferenceable(40) %4) #24
  call void @_ZN4Json5ValueD1Ev(ptr noundef nonnull align 8 dereferenceable(40) %4) #24
  call void @llvm.lifetime.end.p0(i64 40, ptr nonnull %4) #24, !noalias !393
  %22 = call noundef nonnull align 8 dereferenceable(40) ptr @_ZN4Json5ValueaSEOS0_(ptr noundef nonnull align 8 dereferenceable(40) %0, ptr noundef nonnull align 8 dereferenceable(40) %5) #24
  call void @_ZN4Json5ValueD1Ev(ptr noundef nonnull align 8 dereferenceable(40) %5) #24
  call void @llvm.lifetime.end.p0(i64 40, ptr nonnull %5) #24
  br label %.loopexit

23:                                               ; preds = %12
  %24 = landingpad { ptr, i32 }
          cleanup
  br label %.body

.body:                                            ; preds = %19, %23
  %eh.lpad-body = phi { ptr, i32 } [ %24, %23 ], [ %.pn.i, %19 ]
  call void @llvm.lifetime.end.p0(i64 40, ptr nonnull %5) #24
  br label %42

25:                                               ; preds = %3
  call void @llvm.lifetime.start.p0(i64 40, ptr nonnull %6) #24
  invoke void @_ZN4Json5ValueC1ENS_9ValueTypeE(ptr noundef nonnull align 8 dereferenceable(40) %6, i32 noundef 6)
          to label %26 unwind label %31

26:                                               ; preds = %25
  %27 = call noundef nonnull align 8 dereferenceable(40) ptr @_ZN4Json5ValueaSEOS0_(ptr noundef nonnull align 8 dereferenceable(40) %0, ptr noundef nonnull align 8 dereferenceable(40) %6) #24
  call void @_ZN4Json5ValueD1Ev(ptr noundef nonnull align 8 dereferenceable(40) %6) #24
  call void @llvm.lifetime.end.p0(i64 40, ptr nonnull %6) #24
  %28 = load ptr, ptr %2, align 8, !tbaa !396
  %29 = getelementptr inbounds nuw i8, ptr %2, i64 8
  %30 = load ptr, ptr %29, align 8, !tbaa !396
  %.not17 = icmp eq ptr %28, %30
  br i1 %.not17, label %.loopexit, label %.lr.ph

31:                                               ; preds = %25
  %32 = landingpad { ptr, i32 }
          cleanup
  call void @llvm.lifetime.end.p0(i64 40, ptr nonnull %6) #24
  br label %42

.lr.ph:                                           ; preds = %26, %35
  %.sroa.014.018 = phi ptr [ %36, %35 ], [ %28, %26 ]
  call void @llvm.lifetime.start.p0(i64 40, ptr nonnull %7) #24
  invoke void @_ZN9cmFileAPI24BuildClientReplyResponseERKNS_13ClientRequestE(ptr dead_on_unwind nonnull writable sret(%"class.Json::Value") align 8 %7, ptr noundef nonnull align 8 dereferenceable(296) %1, ptr noundef nonnull align 8 dereferenceable(48) %.sroa.014.018)
          to label %33 unwind label %37

33:                                               ; preds = %.lr.ph
  %34 = invoke noundef nonnull align 8 dereferenceable(40) ptr @_ZN4Json5Value6appendEOS0_(ptr noundef nonnull align 8 dereferenceable(40) %0, ptr noundef nonnull align 8 dereferenceable(40) %7)
          to label %35 unwind label %39

35:                                               ; preds = %33
  call void @_ZN4Json5ValueD1Ev(ptr noundef nonnull align 8 dereferenceable(40) %7) #24
  call void @llvm.lifetime.end.p0(i64 40, ptr nonnull %7) #24
  %36 = getelementptr inbounds nuw i8, ptr %.sroa.014.018, i64 48
  %.not = icmp eq ptr %36, %30
  br i1 %.not, label %.loopexit, label %.lr.ph

37:                                               ; preds = %.lr.ph
  %38 = landingpad { ptr, i32 }
          cleanup
  br label %41

39:                                               ; preds = %33
  %40 = landingpad { ptr, i32 }
          cleanup
  call void @_ZN4Json5ValueD1Ev(ptr noundef nonnull align 8 dereferenceable(40) %7) #24
  br label %41

41:                                               ; preds = %39, %37
  %.pn = phi { ptr, i32 } [ %40, %39 ], [ %38, %37 ]
  call void @llvm.lifetime.end.p0(i64 40, ptr nonnull %7) #24
  br label %42

.loopexit:                                        ; preds = %35, %26, %20
  ret void

42:                                               ; preds = %41, %31, %.body
  %.pn.pn = phi { ptr, i32 } [ %.pn, %41 ], [ %32, %31 ], [ %eh.lpad-body, %.body ]
  call void @_ZN4Json5ValueD1Ev(ptr noundef nonnull align 8 dereferenceable(40) %0) #24
  resume { ptr, i32 } %.pn.pn
}